(lp0
(I867761
Vhttp://www.zhihu.com/people/kaifulee
p1
tp2
a(I766804
Vhttp://www.zhihu.com/people/zhang-jia-wei
p3
tp4
a(I671640
Vhttp://www.zhihu.com/people/jixin
p5
tp6
a(I636672
Vhttp://www.zhihu.com/people/zhouyuan
p7
tp8
a(I613058
Vhttp://www.zhihu.com/people/yolfilm
p9
tp10
a(I589714
Vhttp://www.zhihu.com/people/imike
p11
tp12
a(I483018
Vhttp://www.zhihu.com/people/magie
p13
tp14
a(I415745
Vhttp://www.zhihu.com/people/calliope
p15
tp16
a(I400345
Vhttp://www.zhihu.com/people/cai-tong
p17
tp18
a(I400223
Vhttp://www.zhihu.com/people/zhou-xiao-nong
p19
tp20
a(I389972
Vhttp://www.zhihu.com/people/raymond-wang
p21
tp22
a(I373673
Vhttp://www.zhihu.com/people/lawrencelry
p23
tp24
a(I369010
Vhttp://www.zhihu.com/people/fu-er
p25
tp26
a(I353160
Vhttp://www.zhihu.com/people/xiaodaoren
p27
tp28
a(I352091
Vhttp://www.zhihu.com/people/warfalcon
p29
tp30
a(I344410
Vhttp://www.zhihu.com/people/cheng-yi-nan
p31
tp32
a(I319481
Vhttp://www.zhihu.com/people/chenbailing
p33
tp34
a(I299768
Vhttp://www.zhihu.com/people/liangbianyao
p35
tp36
a(I298924
Vhttp://www.zhihu.com/people/gao-ke-69
p37
tp38
a(I298351
Vhttp://www.zhihu.com/people/rio
p39
tp40
a(I292946
Vhttp://www.zhihu.com/people/magasa
p41
tp42
a(I290700
Vhttp://www.zhihu.com/people/zhu-xuan-86
p43
tp44
a(I280932
Vhttp://www.zhihu.com/people/wangxiaofeng
p45
tp46
a(I272244
Vhttp://www.zhihu.com/people/dong-ji-zai-hang-zhou
p47
tp48
a(I258251
Vhttp://www.zhihu.com/people/commando
p49
tp50
a(I255894
Vhttp://www.zhihu.com/people/talich
p51
tp52
a(I247690
Vhttp://www.zhihu.com/people/ma-bo-yong
p53
tp54
a(I229786
Vhttp://www.zhihu.com/people/xiepanda
p55
tp56
a(I217898
Vhttp://www.zhihu.com/people/su-fei-17
p57
tp58
a(I211019
Vhttp://www.zhihu.com/people/bo-cai-28-7
p59
tp60
a(I207983
Vhttp://www.zhihu.com/people/nordenbox
p61
tp62
a(I203330
Vhttp://www.zhihu.com/people/WxzxzW
p63
tp64
a(I197158
Vhttp://www.zhihu.com/people/liuniandate
p65
tp66
a(I187060
Vhttp://www.zhihu.com/people/cici
p67
tp68
a(I181199
Vhttp://www.zhihu.com/people/daguo
p69
tp70
a(I180621
Vhttp://www.zhihu.com/people/jiang-fang-zhou
p71
tp72
a(I179525
Vhttp://www.zhihu.com/people/chenqin
p73
tp74
a(I172613
Vhttp://www.zhihu.com/people/lianghai
p75
tp76
a(I171211
Vhttp://www.zhihu.com/people/boxun
p77
tp78
a(I163027
Vhttp://www.zhihu.com/people/wangnuonuo
p79
tp80
a(I162133
Vhttp://www.zhihu.com/people/Metaphox
p81
tp82
a(I158055
Vhttp://www.zhihu.com/people/chengyuan
p83
tp84
a(I155344
Vhttp://www.zhihu.com/people/jiaoshoutv
p85
tp86
a(I152620
Vhttp://www.zhihu.com/people/catchen
p87
tp88
a(I146175
Vhttp://www.zhihu.com/people/pansz
p89
tp90
a(I144242
Vhttp://www.zhihu.com/people/chu-yang-51-32
p91
tp92
a(I141343
Vhttp://www.zhihu.com/people/da-joy
p93
tp94
a(I139130
Vhttp://www.zhihu.com/people/hsia
p95
tp96
a(I133161
Vhttp://www.zhihu.com/people/kaiserwang730
p97
tp98
a(I128777
Vhttp://www.zhihu.com/people/chibaole
p99
tp100
a(I123931
Vhttp://www.zhihu.com/people/binka
p101
tp102
a(I120170
Vhttp://www.zhihu.com/people/tian-hao-20-5
p103
tp104
a(I119631
Vhttp://www.zhihu.com/people/mali
p105
tp106
a(I118359
Vhttp://www.zhihu.com/people/zhang-zhihao
p107
tp108
a(I115997
Vhttp://www.zhihu.com/people/yangbo
p109
tp110
a(I114809
Vhttp://www.zhihu.com/people/nocturn
p111
tp112
a(I111957
Vhttp://www.zhihu.com/people/leng-zhe
p113
tp114
a(I108593
Vhttp://www.zhihu.com/people/johnxu
p115
tp116
a(I104405
Vhttp://www.zhihu.com/people/whale
p117
tp118
a(I104060
Vhttp://www.zhihu.com/people/feng-dong
p119
tp120
a(I103326
Vhttp://www.zhihu.com/people/luxenius
p121
tp122
a(I98785
Vhttp://www.zhihu.com/people/ayat
p123
tp124
a(I97902
Vhttp://www.zhihu.com/people/tinafever
p125
tp126
a(I97044
Vhttp://www.zhihu.com/people/imajin
p127
tp128
a(I96786
Vhttp://www.zhihu.com/people/yu-san-geng
p129
tp130
a(I94603
Vhttp://www.zhihu.com/people/zhang-jing-88-76
p131
tp132
a(I93192
Vhttp://www.zhihu.com/people/pandacc
p133
tp134
a(I93000
Vhttp://www.zhihu.com/people/enoooooooo
p135
tp136
a(I91667
Vhttp://www.zhihu.com/people/incredible-vczh
p137
tp138
a(I91125
Vhttp://www.zhihu.com/people/livid
p139
tp140
a(I90469
Vhttp://www.zhihu.com/people/luckystar
p141
tp142
a(I87177
Vhttp://www.zhihu.com/people/BlackCloak
p143
tp144
a(I85152
Vhttp://www.zhihu.com/people/aton
p145
tp146
a(I85043
Vhttp://www.zhihu.com/people/matt-hartzell
p147
tp148
a(I80900
Vhttp://www.zhihu.com/people/ji-xuan-yi-9
p149
tp150
a(I77916
Vhttp://www.zhihu.com/people/roy-li
p151
tp152
a(I76631
Vhttp://www.zhihu.com/people/lydia-62
p153
tp154
a(I76443
Vhttp://www.zhihu.com/people/ni-lao
p155
tp156
a(I76303
Vhttp://www.zhihu.com/people/huazong
p157
tp158
a(I72685
Vhttp://www.zhihu.com/people/xu-hui-lin
p159
tp160
a(I72287
Vhttp://www.zhihu.com/people/miaomiaomiao
p161
tp162
a(I71854
Vhttp://www.zhihu.com/people/xuzhihong
p163
tp164
a(I69726
Vhttp://www.zhihu.com/people/helanqiaoyue
p165
tp166
a(I68787
Vhttp://www.zhihu.com/people/rouni
p167
tp168
a(I68510
Vhttp://www.zhihu.com/people/liu-peng-cheng-sai-l
p169
tp170
a(I67902
Vhttp://www.zhihu.com/people/YSGGshishabi
p171
tp172
a(I66692
Vhttp://www.zhihu.com/people/xiao-yan-jing-43
p173
tp174
a(I66091
Vhttp://www.zhihu.com/people/niu-yue-lao-li-xiao-chang
p175
tp176
a(I65501
Vhttp://www.zhihu.com/people/rosicky311
p177
tp178
a(I63633
Vhttp://www.zhihu.com/people/tongxia
p179
tp180
a(I61657
Vhttp://www.zhihu.com/people/zhang-chun-34
p181
tp182
a(I59691
Vhttp://www.zhihu.com/people/fuwocheng
p183
tp184
a(I59522
Vhttp://www.zhihu.com/people/meagloria
p185
tp186
a(I59039
Vhttp://www.zhihu.com/people/sherrylimusic
p187
tp188
a(I58538
Vhttp://www.zhihu.com/people/andrewsun
p189
tp190
a(I57749
Vhttp://www.zhihu.com/people/ekamiao
p191
tp192
a(I57524
Vhttp://www.zhihu.com/people/yangxiaoche
p193
tp194
a(I56209
Vhttp://www.zhihu.com/people/Jazzlover
p195
tp196
a(I55871
Vhttp://www.zhihu.com/people/cyberknight
p197
tp198
a(I55668
Vhttp://www.zhihu.com/people/an-jia-men-yuan
p199
tp200
a(I55588
Vhttp://www.zhihu.com/people/edtall
p201
tp202
a(I55323
Vhttp://www.zhihu.com/people/hou-ye-60
p203
tp204
a(I55211
Vhttp://www.zhihu.com/people/rosecrimson
p205
tp206
a(I55166
Vhttp://www.zhihu.com/people/linaoshi
p207
tp208
a(I54215
Vhttp://www.zhihu.com/people/canniu
p209
tp210
a(I54110
Vhttp://www.zhihu.com/people/wu-yu-an
p211
tp212
a(I53921
Vhttp://www.zhihu.com/people/tony.wong.hk
p213
tp214
a(I53058
Vhttp://www.zhihu.com/people/baimo
p215
tp216
a(I52628
Vhttp://www.zhihu.com/people/chenran
p217
tp218
a(I52177
Vhttp://www.zhihu.com/people/Zoe2012
p219
tp220
a(I50417
Vhttp://www.zhihu.com/people/brianz
p221
tp222
a(I50260
Vhttp://www.zhihu.com/people/flily
p223
tp224
a(I50190
Vhttp://www.zhihu.com/people/chen-fu-zhou
p225
tp226
a(I50157
Vhttp://www.zhihu.com/people/wolf0403
p227
tp228
a(I48032
Vhttp://www.zhihu.com/people/PeterDeng2
p229
tp230
a(I48024
Vhttp://www.zhihu.com/people/fox4x4x4x
p231
tp232
a(I47932
Vhttp://www.zhihu.com/people/yuan-jing-82-81
p233
tp234
a(I47502
Vhttp://www.zhihu.com/people/Changmingwei
p235
tp236
a(I46567
Vhttp://www.zhihu.com/people/xie-ming-1
p237
tp238
a(I46090
Vhttp://www.zhihu.com/people/sijichun
p239
tp240
a(I45752
Vhttp://www.zhihu.com/people/yandeng
p241
tp242
a(I45296
Vhttp://www.zhihu.com/people/ji-xu-zhe-zhang
p243
tp244
a(I44466
Vhttp://www.zhihu.com/people/ying-da-li-67
p245
tp246
a(I44060
Vhttp://www.zhihu.com/people/id47
p247
tp248
a(I43707
Vhttp://www.zhihu.com/people/superwyh
p249
tp250
a(I43544
Vhttp://www.zhihu.com/people/jiejie_my_lover
p251
tp252
a(I41844
Vhttp://www.zhihu.com/people/felania-liu
p253
tp254
a(I40864
Vhttp://www.zhihu.com/people/zhouzhao
p255
tp256
a(I39657
Vhttp://www.zhihu.com/people/mu-rong-qi-95
p257
tp258
a(I38909
Vhttp://www.zhihu.com/people/ihappybear
p259
tp260
a(I38726
Vhttp://www.zhihu.com/people/jiong-ni-jiang
p261
tp262
a(I36650
Vhttp://www.zhihu.com/people/PortiaC
p263
tp264
a(I35540
Vhttp://www.zhihu.com/people/coldloving
p265
tp266
a(I35382
Vhttp://www.zhihu.com/people/tai-luo-taro
p267
tp268
a(I34900
Vhttp://www.zhihu.com/people/phil_joe
p269
tp270
a(I34876
Vhttp://www.zhihu.com/people/lostin
p271
tp272
a(I34683
Vhttp://www.zhihu.com/people/hai-can-bao-76
p273
tp274
a(I34327
Vhttp://www.zhihu.com/people/li-yu-ting-sunny
p275
tp276
a(I34093
Vhttp://www.zhihu.com/people/tombkeeper
p277
tp278
a(I33902
Vhttp://www.zhihu.com/people/yunshu
p279
tp280
a(I33816
Vhttp://www.zhihu.com/people/xiao-wei-78
p281
tp282
a(I32324
Vhttp://www.zhihu.com/people/xubowen
p283
tp284
a(I31810
Vhttp://www.zhihu.com/people/bai-ru-bing-58
p285
tp286
a(I30394
Vhttp://www.zhihu.com/people/mao-yu-li
p287
tp288
a(I29873
Vhttp://www.zhihu.com/people/juan-32
p289
tp290
a(I29737
Vhttp://www.zhihu.com/people/shenpp
p291
tp292
a(I29727
Vhttp://www.zhihu.com/people/huang-xin-20-97
p293
tp294
a(I29538
Vhttp://www.zhihu.com/people/3837367568394926
p295
tp296
a(I29328
Vhttp://www.zhihu.com/people/shen-yibing
p297
tp298
a(I29090
Vhttp://www.zhihu.com/people/xjiangxjxjxjx
p299
tp300
a(I27375
Vhttp://www.zhihu.com/people/dai-yu-xiu
p301
tp302
a(I27365
Vhttp://www.zhihu.com/people/rainee-jiang
p303
tp304
a(I27088
Vhttp://www.zhihu.com/people/handong1986
p305
tp306
a(I26882
Vhttp://www.zhihu.com/people/nogirlnotalk
p307
tp308
a(I26695
Vhttp://www.zhihu.com/people/qi-yuan-yuan-52
p309
tp310
a(I26611
Vhttp://www.zhihu.com/people/shang-guan-xiao-xia
p311
tp312
a(I26235
Vhttp://www.zhihu.com/people/lycheeorange
p313
tp314
a(I26175
Vhttp://www.zhihu.com/people/yanshar
p315
tp316
a(I25945
Vhttp://www.zhihu.com/people/siva
p317
tp318
a(I25856
Vhttp://www.zhihu.com/people/suosi
p319
tp320
a(I25130
Vhttp://www.zhihu.com/people/xiao-jing-mo
p321
tp322
a(I25098
Vhttp://www.zhihu.com/people/zenithdie
p323
tp324
a(I24992
Vhttp://www.zhihu.com/people/sheldon
p325
tp326
a(I24753
Vhttp://www.zhihu.com/people/zhou-er-xiao-jie
p327
tp328
a(I24732
Vhttp://www.zhihu.com/people/shi-wei-hu-bu-gui
p329
tp330
a(I24640
Vhttp://www.zhihu.com/people/ouyangli
p331
tp332
a(I24494
Vhttp://www.zhihu.com/people/fang-shi-yi-yue
p333
tp334
a(I24210
Vhttp://www.zhihu.com/people/wu-wei-45
p335
tp336
a(I24090
Vhttp://www.zhihu.com/people/yskin
p337
tp338
a(I23405
Vhttp://www.zhihu.com/people/cao-meng-di
p339
tp340
a(I22750
Vhttp://www.zhihu.com/people/liuxiaoyao
p341
tp342
a(I22680
Vhttp://www.zhihu.com/people/Ivony
p343
tp344
a(I22431
Vhttp://www.zhihu.com/people/robbin
p345
tp346
a(I22173
Vhttp://www.zhihu.com/people/lanlingyeyu
p347
tp348
a(I21962
Vhttp://www.zhihu.com/people/zhou-kai-xuan-47
p349
tp350
a(I21387
Vhttp://www.zhihu.com/people/xu-teng-fei-13
p351
tp352
a(I21385
Vhttp://www.zhihu.com/people/huma
p353
tp354
a(I21096
Vhttp://www.zhihu.com/people/hey-you
p355
tp356
a(I21012
Vhttp://www.zhihu.com/people/yao-dong-27
p357
tp358
a(I20267
Vhttp://www.zhihu.com/people/huang-lei-si
p359
tp360
a(I20191
Vhttp://www.zhihu.com/people/gettoknow
p361
tp362
a(I20182
Vhttp://www.zhihu.com/people/kennethtse
p363
tp364
a(I20077
Vhttp://www.zhihu.com/people/charles-wang-2012
p365
tp366
a(I19809
Vhttp://www.zhihu.com/people/zhou-zuo
p367
tp368
a(I19652
Vhttp://www.zhihu.com/people/peach
p369
tp370
a(I19565
Vhttp://www.zhihu.com/people/zuo-an-you-shui
p371
tp372
a(I19357
Vhttp://www.zhihu.com/people/Erdnussoelbearbeiter
p373
tp374
a(I19280
Vhttp://www.zhihu.com/people/li-hao-xuan-81
p375
tp376
a(I19158
Vhttp://www.zhihu.com/people/tang-di-4-29
p377
tp378
a(I18630
Vhttp://www.zhihu.com/people/guo-qi
p379
tp380
a(I18525
Vhttp://www.zhihu.com/people/zhu-sha
p381
tp382
a(I18410
Vhttp://www.zhihu.com/people/programus
p383
tp384
a(I18175
Vhttp://www.zhihu.com/people/cheka
p385
tp386
a(I18039
Vhttp://www.zhihu.com/people/tao-yan-37
p387
tp388
a(I17692
Vhttp://www.zhihu.com/people/phos
p389
tp390
a(I17591
Vhttp://www.zhihu.com/people/mao-bu-qun
p391
tp392
a(I17252
Vhttp://www.zhihu.com/people/tie-zhu-52
p393
tp394
a(I17237
Vhttp://www.zhihu.com/people/james-big
p395
tp396
a(I17150
Vhttp://www.zhihu.com/people/han-dong-ran
p397
tp398
a(I17009
Vhttp://www.zhihu.com/people/joy-cai-14
p399
tp400
a(I16816
Vhttp://www.zhihu.com/people/tassandar
p401
tp402
a(I16690
Vhttp://www.zhihu.com/people/chun-san-ji
p403
tp404
a(I16546
Vhttp://www.zhihu.com/people/NicolasYu
p405
tp406
a(I16267
Vhttp://www.zhihu.com/people/cocosuma
p407
tp408
a(I16019
Vhttp://www.zhihu.com/people/jiang-hong-yu-60
p409
tp410
a(I15975
Vhttp://www.zhihu.com/people/hai-yang
p411
tp412
a(I15965
Vhttp://www.zhihu.com/people/Barley
p413
tp414
a(I15589
Vhttp://www.zhihu.com/people/zhu-shi-30
p415
tp416
a(I15328
Vhttp://www.zhihu.com/people/cherrybomb
p417
tp418
a(I15158
Vhttp://www.zhihu.com/people/wu-tian-wei
p419
tp420
a(I15086
Vhttp://www.zhihu.com/people/moemoeli
p421
tp422
a(I15002
Vhttp://www.zhihu.com/people/miao-ying
p423
tp424
a(I14703
Vhttp://www.zhihu.com/people/zi-quan-26
p425
tp426
a(I14672
Vhttp://www.zhihu.com/people/GuLynda
p427
tp428
a(I14517
Vhttp://www.zhihu.com/people/eddie-66
p429
tp430
a(I14482
Vhttp://www.zhihu.com/people/GOUKI9999
p431
tp432
a(I14362
Vhttp://www.zhihu.com/people/liang-xiao-hua-53
p433
tp434
a(I14127
Vhttp://www.zhihu.com/people/haoel
p435
tp436
a(I13941
Vhttp://www.zhihu.com/people/nie-shuai-59
p437
tp438
a(I13743
Vhttp://www.zhihu.com/people/iamsujie
p439
tp440
a(I13688
Vhttp://www.zhihu.com/people/lei-lei-89
p441
tp442
a(I13545
Vhttp://www.zhihu.com/people/trendol
p443
tp444
a(I13320
Vhttp://www.zhihu.com/people/mochaz
p445
tp446
a(I13264
Vhttp://www.zhihu.com/people/rambler-may
p447
tp448
a(I13144
Vhttp://www.zhihu.com/people/madvin
p449
tp450
a(I13115
Vhttp://www.zhihu.com/people/lan-yan-92
p451
tp452
a(I12921
Vhttp://www.zhihu.com/people/suikaixin
p453
tp454
a(I12884
Vhttp://www.zhihu.com/people/zhao-si-zs
p455
tp456
a(I12878
Vhttp://www.zhihu.com/people/luo-fei-77
p457
tp458
a(I12595
Vhttp://www.zhihu.com/people/ming-wei
p459
tp460
a(I12276
Vhttp://www.zhihu.com/people/olegvodnik
p461
tp462
a(I11904
Vhttp://www.zhihu.com/people/tu-zi-31-55
p463
tp464
a(I11614
Vhttp://www.zhihu.com/people/banlon
p465
tp466
a(I11300
Vhttp://www.zhihu.com/people/sagacity
p467
tp468
a(I11166
Vhttp://www.zhihu.com/people/herolaozhang
p469
tp470
a(I10858
Vhttp://www.zhihu.com/people/shisu
p471
tp472
a(I10732
Vhttp://www.zhihu.com/people/li-jing-20-69
p473
tp474
a(I10607
Vhttp://www.zhihu.com/people/risako
p475
tp476
a(I10439
Vhttp://www.zhihu.com/people/toughts
p477
tp478
a(I10377
Vhttp://www.zhihu.com/people/xuanzio0o
p479
tp480
a(I10281
Vhttp://www.zhihu.com/people/zhang-yu-57-45
p481
tp482
a(I9953
Vhttp://www.zhihu.com/people/wenabby
p483
tp484
a(I9251
Vhttp://www.zhihu.com/people/cheng-song-25
p485
tp486
a(I9110
Vhttp://www.zhihu.com/people/xie-wei-wen
p487
tp488
a(I9083
Vhttp://www.zhihu.com/people/yiyunliang
p489
tp490
a(I9039
Vhttp://www.zhihu.com/people/kuaidaoqingyi
p491
tp492
a(I9019
Vhttp://www.zhihu.com/people/windleavez
p493
tp494
a(I8908
Vhttp://www.zhihu.com/people/cody-16
p495
tp496
a(I8845
Vhttp://www.zhihu.com/people/yang-yu-80
p497
tp498
a(I8807
Vhttp://www.zhihu.com/people/Miss.Jiang
p499
tp500
a(I8790
Vhttp://www.zhihu.com/people/moderation
p501
tp502
a(I8692
Vhttp://www.zhihu.com/people/mikilin
p503
tp504
a(I8676
Vhttp://www.zhihu.com/people/fu-qing
p505
tp506
a(I8562
Vhttp://www.zhihu.com/people/zhang-jing-nian
p507
tp508
a(I8247
Vhttp://www.zhihu.com/people/he-shi-jun
p509
tp510
a(I8098
Vhttp://www.zhihu.com/people/xiong-chen-yan
p511
tp512
a(I8059
Vhttp://www.zhihu.com/people/verayang
p513
tp514
a(I7987
Vhttp://www.zhihu.com/people/yu-chen-41-39
p515
tp516
a(I7938
Vhttp://www.zhihu.com/people/da-da-50
p517
tp518
a(I7821
Vhttp://www.zhihu.com/people/xiexiaolong_pku
p519
tp520
a(I7763
Vhttp://www.zhihu.com/people/morlay
p521
tp522
a(I7740
Vhttp://www.zhihu.com/people/gongzidabai
p523
tp524
a(I7451
Vhttp://www.zhihu.com/people/magnil
p525
tp526
a(I7423
Vhttp://www.zhihu.com/people/li-a-ling
p527
tp528
a(I7413
Vhttp://www.zhihu.com/people/bassmanxelloss
p529
tp530
a(I7399
Vhttp://www.zhihu.com/people/andy-liu
p531
tp532
a(I7024
Vhttp://www.zhihu.com/people/york-cheung
p533
tp534
a(I6869
Vhttp://www.zhihu.com/people/bboczeng
p535
tp536
a(I6859
Vhttp://www.zhihu.com/people/GeoffreyR
p537
tp538
a(I6300
Vhttp://www.zhihu.com/people/yawninghan
p539
tp540
a(I6291
Vhttp://www.zhihu.com/people/hibreeze
p541
tp542
a(I6263
Vhttp://www.zhihu.com/people/zhangshushu
p543
tp544
a(I6261
Vhttp://www.zhihu.com/people/james-swineson
p545
tp546
a(I6257
Vhttp://www.zhihu.com/people/Zita
p547
tp548
a(I6053
Vhttp://www.zhihu.com/people/chenxistanley
p549
tp550
a(I6005
Vhttp://www.zhihu.com/people/wuvist
p551
tp552
a(I5983
Vhttp://www.zhihu.com/people/Marshallpku
p553
tp554
a(I5976
Vhttp://www.zhihu.com/people/juliana-yang
p555
tp556
a(I5871
Vhttp://www.zhihu.com/people/wangcheng678
p557
tp558
a(I5853
Vhttp://www.zhihu.com/people/da-momo-93
p559
tp560
a(I5765
Vhttp://www.zhihu.com/people/hydro-ding
p561
tp562
a(I5746
Vhttp://www.zhihu.com/people/moxi
p563
tp564
a(I5710
Vhttp://www.zhihu.com/people/li-dong-91-32
p565
tp566
a(I5703
Vhttp://www.zhihu.com/people/asqwas
p567
tp568
a(I5697
Vhttp://www.zhihu.com/people/philoxiaofeiji
p569
tp570
a(I5599
Vhttp://www.zhihu.com/people/aaronalgebra
p571
tp572
a(I5578
Vhttp://www.zhihu.com/people/yueyihe
p573
tp574
a(I5488
Vhttp://www.zhihu.com/people/huang-xin-99
p575
tp576
a(I5414
Vhttp://www.zhihu.com/people/fkysly
p577
tp578
a(I5333
Vhttp://www.zhihu.com/people/zheng-lei-59
p579
tp580
a(I5171
Vhttp://www.zhihu.com/people/chriswenatlausa
p581
tp582
a(I5117
Vhttp://www.zhihu.com/people/heretic
p583
tp584
a(I4979
Vhttp://www.zhihu.com/people/fouber
p585
tp586
a(I4973
Vhttp://www.zhihu.com/people/sobranie1984
p587
tp588
a(I4971
Vhttp://www.zhihu.com/people/wang-xiao-long-5-98
p589
tp590
a(I4941
Vhttp://www.zhihu.com/people/mo-ming-98-97
p591
tp592
a(I4893
Vhttp://www.zhihu.com/people/fan-xiao-ting
p593
tp594
a(I4829
Vhttp://www.zhihu.com/people/helena_pan
p595
tp596
a(I4736
Vhttp://www.zhihu.com/people/zouxiu
p597
tp598
a(I4694
Vhttp://www.zhihu.com/people/mu-xi-alexandeng
p599
tp600
a(I4663
Vhttp://www.zhihu.com/people/roc.ho
p601
tp602
a(I4609
Vhttp://www.zhihu.com/people/zou-chang-li
p603
tp604
a(I4484
Vhttp://www.zhihu.com/people/joyneop
p605
tp606
a(I4466
Vhttp://www.zhihu.com/people/tianyu123
p607
tp608
a(I4164
Vhttp://www.zhihu.com/people/chao-xu
p609
tp610
a(I4157
Vhttp://www.zhihu.com/people/wuboshi
p611
tp612
a(I4119
Vhttp://www.zhihu.com/people/zee-143
p613
tp614
a(I3995
Vhttp://www.zhihu.com/people/followstars
p615
tp616
a(I3948
Vhttp://www.zhihu.com/people/miclove
p617
tp618
a(I3741
Vhttp://www.zhihu.com/people/big_caaat
p619
tp620
a(I3680
Vhttp://www.zhihu.com/people/peng-si-65-74
p621
tp622
a(I3677
Vhttp://www.zhihu.com/people/jory
p623
tp624
a(I3647
Vhttp://www.zhihu.com/people/bai-min-40
p625
tp626
a(I3639
Vhttp://www.zhihu.com/people/lee-fengchao-seven
p627
tp628
a(I3523
Vhttp://www.zhihu.com/people/xiao-mai-ya
p629
tp630
a(I3509
Vhttp://www.zhihu.com/people/xiao-yu-92-72
p631
tp632
a(I3450
Vhttp://www.zhihu.com/people/ai-zi-you-7
p633
tp634
a(I3384
Vhttp://www.zhihu.com/people/du-forever
p635
tp636
a(I3334
Vhttp://www.zhihu.com/people/ma-dr
p637
tp638
a(I3330
Vhttp://www.zhihu.com/people/spacekid
p639
tp640
a(I3310
Vhttp://www.zhihu.com/people/michiyo
p641
tp642
a(I3181
Vhttp://www.zhihu.com/people/xiekun1128
p643
tp644
a(I3175
Vhttp://www.zhihu.com/people/spto
p645
tp646
a(I3158
Vhttp://www.zhihu.com/people/multivac
p647
tp648
a(I3135
Vhttp://www.zhihu.com/people/xia-yi-fei-45
p649
tp650
a(I3114
Vhttp://www.zhihu.com/people/jiu-yi-2-10
p651
tp652
a(I3078
Vhttp://www.zhihu.com/people/bigc.at
p653
tp654
a(I3035
Vhttp://www.zhihu.com/people/bo-luo-ming
p655
tp656
a(I2924
Vhttp://www.zhihu.com/people/yu-xiao-sha
p657
tp658
a(I2903
Vhttp://www.zhihu.com/people/phuslu
p659
tp660
a(I2870
Vhttp://www.zhihu.com/people/zhang-xiao-miao-97-32
p661
tp662
a(I2817
Vhttp://www.zhihu.com/people/spikwen
p663
tp664
a(I2781
Vhttp://www.zhihu.com/people/xiao-hong-yang
p665
tp666
a(I2764
Vhttp://www.zhihu.com/people/edliu
p667
tp668
a(I2744
Vhttp://www.zhihu.com/people/vincent-qiu-56
p669
tp670
a(I2744
Vhttp://www.zhihu.com/people/bei-yan-57
p671
tp672
a(I2736
Vhttp://www.zhihu.com/people/huang-long-ju
p673
tp674
a(I2712
Vhttp://www.zhihu.com/people/crystal-cho
p675
tp676
a(I2667
Vhttp://www.zhihu.com/people/cascade
p677
tp678
a(I2637
Vhttp://www.zhihu.com/people/edward-fu-91
p679
tp680
a(I2560
Vhttp://www.zhihu.com/people/hexiaobo
p681
tp682
a(I2519
Vhttp://www.zhihu.com/people/jiangzhigao
p683
tp684
a(I2481
Vhttp://www.zhihu.com/people/cokecasper
p685
tp686
a(I2443
Vhttp://www.zhihu.com/people/jiang-yuan-hao-91
p687
tp688
a(I2434
Vhttp://www.zhihu.com/people/core_wzw
p689
tp690
a(I2409
Vhttp://www.zhihu.com/people/tyddung
p691
tp692
a(I2378
Vhttp://www.zhihu.com/people/rocky-5
p693
tp694
a(I2293
Vhttp://www.zhihu.com/people/zhang-ming-yun-97
p695
tp696
a(I2245
Vhttp://www.zhihu.com/people/8hpencil
p697
tp698
a(I2198
Vhttp://www.zhihu.com/people/jia-yang-qing-74
p699
tp700
a(I2165
Vhttp://www.zhihu.com/people/celery
p701
tp702
a(I2127
Vhttp://www.zhihu.com/people/li-zhe-yu-catpart
p703
tp704
a(I2122
Vhttp://www.zhihu.com/people/farmostwood
p705
tp706
a(I2105
Vhttp://www.zhihu.com/people/liu-xiao-zhao
p707
tp708
a(I2088
Vhttp://www.zhihu.com/people/podsen
p709
tp710
a(I2087
Vhttp://www.zhihu.com/people/wenguo
p711
tp712
a(I2079
Vhttp://www.zhihu.com/people/jayzhou
p713
tp714
a(I2070
Vhttp://www.zhihu.com/people/duan-mu-zi
p715
tp716
a(I2018
Vhttp://www.zhihu.com/people/winshy
p717
tp718
a(I1961
Vhttp://www.zhihu.com/people/lin-toshii-1212
p719
tp720
a(I1954
Vhttp://www.zhihu.com/people/li-yao-15
p721
tp722
a(I1902
Vhttp://www.zhihu.com/people/xianghuasheng
p723
tp724
a(I1898
Vhttp://www.zhihu.com/people/javokevic
p725
tp726
a(I1877
Vhttp://www.zhihu.com/people/ovilia
p727
tp728
a(I1858
Vhttp://www.zhihu.com/people/npbool
p729
tp730
a(I1842
Vhttp://www.zhihu.com/people/cindy-cui-4
p731
tp732
a(I1742
Vhttp://www.zhihu.com/people/sun-zi-xun
p733
tp734
a(I1724
Vhttp://www.zhihu.com/people/zhao-slade
p735
tp736
a(I1693
Vhttp://www.zhihu.com/people/li-xi-33-10
p737
tp738
a(I1588
Vhttp://www.zhihu.com/people/qinchuhan
p739
tp740
a(I1586
Vhttp://www.zhihu.com/people/tongchiang
p741
tp742
a(I1545
Vhttp://www.zhihu.com/people/huangchi
p743
tp744
a(I1535
Vhttp://www.zhihu.com/people/bobbychang
p745
tp746
a(I1499
Vhttp://www.zhihu.com/people/xu-zhi-chao-47
p747
tp748
a(I1465
Vhttp://www.zhihu.com/people/threedian141
p749
tp750
a(I1457
Vhttp://www.zhihu.com/people/michelle-8
p751
tp752
a(I1455
Vhttp://www.zhihu.com/people/Eternity92
p753
tp754
a(I1445
Vhttp://www.zhihu.com/people/li-mei-li-97
p755
tp756
a(I1428
Vhttp://www.zhihu.com/people/wang-fan-si
p757
tp758
a(I1375
Vhttp://www.zhihu.com/people/fuqiufeng
p759
tp760
a(I1334
Vhttp://www.zhihu.com/people/tian-nan-16
p761
tp762
a(I1304
Vhttp://www.zhihu.com/people/objectjia
p763
tp764
a(I1264
Vhttp://www.zhihu.com/people/jin-bing-wen
p765
tp766
a(I1258
Vhttp://www.zhihu.com/people/li-jun-feng-95
p767
tp768
a(I1236
Vhttp://www.zhihu.com/people/tang-cu-pai-gu-22
p769
tp770
a(I1198
Vhttp://www.zhihu.com/people/long-yin-sui-feng
p771
tp772
a(I1169
Vhttp://www.zhihu.com/people/xi-yu-man-di
p773
tp774
a(I1139
Vhttp://www.zhihu.com/people/kyon-n
p775
tp776
a(I1136
Vhttp://www.zhihu.com/people/kent03
p777
tp778
a(I1135
Vhttp://www.zhihu.com/people/hu-ming-wei-29
p779
tp780
a(I1116
Vhttp://www.zhihu.com/people/pheora
p781
tp782
a(I1087
Vhttp://www.zhihu.com/people/shen-xian-wu-shi-liu
p783
tp784
a(I1026
Vhttp://www.zhihu.com/people/iamyourshifu
p785
tp786
a(I1011
Vhttp://www.zhihu.com/people/tigerdavid
p787
tp788
a(I936
Vhttp://www.zhihu.com/people/shawphy
p789
tp790
a(I935
Vhttp://www.zhihu.com/people/prettywall
p791
tp792
a(I893
Vhttp://www.zhihu.com/people/deng-xing-xing
p793
tp794
a(I888
Vhttp://www.zhihu.com/people/jasonxu-86
p795
tp796
a(I847
Vhttp://www.zhihu.com/people/zhang-da-qian-77
p797
tp798
a(I838
Vhttp://www.zhihu.com/people/peng-hai-xing-34
p799
tp800
a(I836
Vhttp://www.zhihu.com/people/liao-zhou-yi
p801
tp802
a(I809
Vhttp://www.zhihu.com/people/xu-duo-65
p803
tp804
a(I804
Vhttp://www.zhihu.com/people/CareF
p805
tp806
a(I790
Vhttp://www.zhihu.com/people/ma-yi-she-ying
p807
tp808
a(I786
Vhttp://www.zhihu.com/people/kang-si-tan
p809
tp810
a(I783
Vhttp://www.zhihu.com/people/brahe
p811
tp812
a(I783
Vhttp://www.zhihu.com/people/chi-yue-kong
p813
tp814
a(I761
Vhttp://www.zhihu.com/people/angel0610
p815
tp816
a(I756
Vhttp://www.zhihu.com/people/jing-xiao-meng
p817
tp818
a(I735
Vhttp://www.zhihu.com/people/hou-zhen-hai
p819
tp820
a(I731
Vhttp://www.zhihu.com/people/bicaihua
p821
tp822
a(I711
Vhttp://www.zhihu.com/people/nfyn
p823
tp824
a(I699
Vhttp://www.zhihu.com/people/naizhao
p825
tp826
a(I691
Vhttp://www.zhihu.com/people/zhang-xiao-xiao-76-9
p827
tp828
a(I683
Vhttp://www.zhihu.com/people/dandyweng
p829
tp830
a(I675
Vhttp://www.zhihu.com/people/yexiaofei
p831
tp832
a(I670
Vhttp://www.zhihu.com/people/fishice
p833
tp834
a(I667
Vhttp://www.zhihu.com/people/li-xi-lie
p835
tp836
a(I664
Vhttp://www.zhihu.com/people/yi-zhou-1
p837
tp838
a(I653
Vhttp://www.zhihu.com/people/VelacielaZhu
p839
tp840
a(I633
Vhttp://www.zhihu.com/people/zhang-jin-ye
p841
tp842
a(I630
Vhttp://www.zhihu.com/people/xia-tian-wu
p843
tp844
a(I629
Vhttp://www.zhihu.com/people/jerry2012
p845
tp846
a(I607
Vhttp://www.zhihu.com/people/wei-shi-yao-fan
p847
tp848
a(I602
Vhttp://www.zhihu.com/people/Steven-Gan
p849
tp850
a(I594
Vhttp://www.zhihu.com/people/-hex-
p851
tp852
a(I591
Vhttp://www.zhihu.com/people/namedgod
p853
tp854
a(I576
Vhttp://www.zhihu.com/people/wang-yan-34-70
p855
tp856
a(I565
Vhttp://www.zhihu.com/people/tianze
p857
tp858
a(I564
Vhttp://www.zhihu.com/people/fc1987
p859
tp860
a(I552
Vhttp://www.zhihu.com/people/shen2
p861
tp862
a(I535
Vhttp://www.zhihu.com/people/li-bing-jun
p863
tp864
a(I530
Vhttp://www.zhihu.com/people/chengchen1994
p865
tp866
a(I517
Vhttp://www.zhihu.com/people/baozier
p867
tp868
a(I510
Vhttp://www.zhihu.com/people/she-xiao-yu-29
p869
tp870
a(I496
Vhttp://www.zhihu.com/people/mimixu
p871
tp872
a(I494
Vhttp://www.zhihu.com/people/mo-wei-zhi
p873
tp874
a(I487
Vhttp://www.zhihu.com/people/wu-hua-yu-68
p875
tp876
a(I464
Vhttp://www.zhihu.com/people/hsiang-kuo
p877
tp878
a(I437
Vhttp://www.zhihu.com/people/forcube
p879
tp880
a(I435
Vhttp://www.zhihu.com/people/sun-chong-kai
p881
tp882
a(I417
Vhttp://www.zhihu.com/people/zhu-yixin-42
p883
tp884
a(I417
Vhttp://www.zhihu.com/people/HippoMatrix
p885
tp886
a(I414
Vhttp://www.zhihu.com/people/nktk-ctk
p887
tp888
a(I412
Vhttp://www.zhihu.com/people/sunye-73
p889
tp890
a(I411
Vhttp://www.zhihu.com/people/zhou-tian-83
p891
tp892
a(I407
Vhttp://www.zhihu.com/people/tang-ren-75
p893
tp894
a(I406
Vhttp://www.zhihu.com/people/jasonqu
p895
tp896
a(I403
Vhttp://www.zhihu.com/people/shu-yan-73
p897
tp898
a(I401
Vhttp://www.zhihu.com/people/dong-jia-ming-63
p899
tp900
a(I396
Vhttp://www.zhihu.com/people/su-mu-zhe-87
p901
tp902
a(I396
Vhttp://www.zhihu.com/people/lixueshi
p903
tp904
a(I384
Vhttp://www.zhihu.com/people/bu-zhi-24-2
p905
tp906
a(I382
Vhttp://www.zhihu.com/people/marlin-31
p907
tp908
a(I377
Vhttp://www.zhihu.com/people/shi-bo-qing
p909
tp910
a(I371
Vhttp://www.zhihu.com/people/huanyuan
p911
tp912
a(I355
Vhttp://www.zhihu.com/people/zhou-xiao-mi-29-56
p913
tp914
a(I353
Vhttp://www.zhihu.com/people/zhengxingwei
p915
tp916
a(I342
Vhttp://www.zhihu.com/people/jeffreyrenjie
p917
tp918
a(I342
Vhttp://www.zhihu.com/people/qingjiedianshang
p919
tp920
a(I340
Vhttp://www.zhihu.com/people/aaron-1-6
p921
tp922
a(I331
Vhttp://www.zhihu.com/people/doublefang
p923
tp924
a(I329
Vhttp://www.zhihu.com/people/mzehuang
p925
tp926
a(I325
Vhttp://www.zhihu.com/people/mfpans0733
p927
tp928
a(I304
Vhttp://www.zhihu.com/people/sivona0524
p929
tp930
a(I297
Vhttp://www.zhihu.com/people/sophievv
p931
tp932
a(I283
Vhttp://www.zhihu.com/people/xiyang
p933
tp934
a(I280
Vhttp://www.zhihu.com/people/xiangku
p935
tp936
a(I275
Vhttp://www.zhihu.com/people/congee
p937
tp938
a(I271
Vhttp://www.zhihu.com/people/wan-zhu-70
p939
tp940
a(I266
Vhttp://www.zhihu.com/people/Techtalk
p941
tp942
a(I265
Vhttp://www.zhihu.com/people/zhiqiao
p943
tp944
a(I265
Vhttp://www.zhihu.com/people/eileen-chen-00
p945
tp946
a(I264
Vhttp://www.zhihu.com/people/zhu-hang-xin
p947
tp948
a(I257
Vhttp://www.zhihu.com/people/vince
p949
tp950
a(I248
Vhttp://www.zhihu.com/people/nothinggg
p951
tp952
a(I242
Vhttp://www.zhihu.com/people/shaneho
p953
tp954
a(I234
Vhttp://www.zhihu.com/people/wudongqing
p955
tp956
a(I234
Vhttp://www.zhihu.com/people/lin-xiao-tou
p957
tp958
a(I227
Vhttp://www.zhihu.com/people/philcn
p959
tp960
a(I221
Vhttp://www.zhihu.com/people/shendaodao
p961
tp962
a(I216
Vhttp://www.zhihu.com/people/xing-chen-9-8
p963
tp964
a(I215
Vhttp://www.zhihu.com/people/aerome
p965
tp966
a(I214
Vhttp://www.zhihu.com/people/huafox
p967
tp968
a(I207
Vhttp://www.zhihu.com/people/you-jiang-55
p969
tp970
a(I206
Vhttp://www.zhihu.com/people/ye-man
p971
tp972
a(I203
Vhttp://www.zhihu.com/people/stanley-yang
p973
tp974
a(I202
Vhttp://www.zhihu.com/people/su-ling-8
p975
tp976
a(I201
Vhttp://www.zhihu.com/people/yu-ye
p977
tp978
a(I194
Vhttp://www.zhihu.com/people/yang-si-zhuang-54
p979
tp980
a(I189
Vhttp://www.zhihu.com/people/wmbpku
p981
tp982
a(I185
Vhttp://www.zhihu.com/people/Xinyu07
p983
tp984
a(I175
Vhttp://www.zhihu.com/people/abelard
p985
tp986
a(I169
Vhttp://www.zhihu.com/people/yesudewanyan
p987
tp988
a(I163
Vhttp://www.zhihu.com/people/xiangyue
p989
tp990
a(I163
Vhttp://www.zhihu.com/people/xue-ai-mao
p991
tp992
a(I160
Vhttp://www.zhihu.com/people/hu-wei-wei-39
p993
tp994
a(I153
Vhttp://www.zhihu.com/people/ceng-shao-wei
p995
tp996
a(I151
Vhttp://www.zhihu.com/people/ling-zi-29
p997
tp998
a(I151
Vhttp://www.zhihu.com/people/pierrick-jaouen
p999
tp1000
a(I150
Vhttp://www.zhihu.com/people/junzizhiyan
p1001
tp1002
a(I142
Vhttp://www.zhihu.com/people/imro
p1003
tp1004
a(I139
Vhttp://www.zhihu.com/people/mayday-88
p1005
tp1006
a(I138
Vhttp://www.zhihu.com/people/zhang-zhuo-yue
p1007
tp1008
a(I126
Vhttp://www.zhihu.com/people/bocife
p1009
tp1010
a(I125
Vhttp://www.zhihu.com/people/zhang-xiao-qiang
p1011
tp1012
a(I125
Vhttp://www.zhihu.com/people/zhang-zi-yang-25-10
p1013
tp1014
a(I124
Vhttp://www.zhihu.com/people/zhao-shi-qi-10
p1015
tp1016
a(I123
Vhttp://www.zhihu.com/people/anderson-76
p1017
tp1018
a(I110
Vhttp://www.zhihu.com/people/ou-wen-9-30
p1019
tp1020
a(I97
Vhttp://www.zhihu.com/people/yinji-
p1021
tp1022
a(I97
Vhttp://www.zhihu.com/people/purekid
p1023
tp1024
a(I92
Vhttp://www.zhihu.com/people/long-bing-hua
p1025
tp1026
a(I87
Vhttp://www.zhihu.com/people/li-da-hao-74
p1027
tp1028
a(I83
Vhttp://www.zhihu.com/people/zhong-zi-yi-26
p1029
tp1030
a(I79
Vhttp://www.zhihu.com/people/zhang-yi-chi-12
p1031
tp1032
a(I77
Vhttp://www.zhihu.com/people/qiu-shi-36-50-35
p1033
tp1034
a(I74
Vhttp://www.zhihu.com/people/vager
p1035
tp1036
a(I73
Vhttp://www.zhihu.com/people/xiao-ying-bo
p1037
tp1038
a(I73
Vhttp://www.zhihu.com/people/baijason
p1039
tp1040
a(I71
Vhttp://www.zhihu.com/people/regulus-63
p1041
tp1042
a(I70
Vhttp://www.zhihu.com/people/gzy.29
p1043
tp1044
a(I69
Vhttp://www.zhihu.com/people/dearlin
p1045
tp1046
a(I64
Vhttp://www.zhihu.com/people/wu-mu-yun-46
p1047
tp1048
a(I61
Vhttp://www.zhihu.com/people/walt-w
p1049
tp1050
a(I60
Vhttp://www.zhihu.com/people/RizGrand
p1051
tp1052
a(I57
Vhttp://www.zhihu.com/people/zhang-long-song-64
p1053
tp1054
a(I52
Vhttp://www.zhihu.com/people/wang-zong-jue-5
p1055
tp1056
a(I51
Vhttp://www.zhihu.com/people/jennifer-57
p1057
tp1058
a(I49
Vhttp://www.zhihu.com/people/tank8848
p1059
tp1060
a(I47
Vhttp://www.zhihu.com/people/wang-yu-liang-22
p1061
tp1062
a(I47
Vhttp://www.zhihu.com/people/zhao-xiao-chan
p1063
tp1064
a(I46
Vhttp://www.zhihu.com/people/cta-b
p1065
tp1066
a(I43
Vhttp://www.zhihu.com/people/kexin-deng
p1067
tp1068
a(I42
Vhttp://www.zhihu.com/people/zhu-ruo-yu-74
p1069
tp1070
a(I42
Vhttp://www.zhihu.com/people/sunrise.stack
p1071
tp1072
a(I36
Vhttp://www.zhihu.com/people/huzhi-zhang
p1073
tp1074
a(I34
Vhttp://www.zhihu.com/people/miloqian
p1075
tp1076
a(I33
Vhttp://www.zhihu.com/people/immediate
p1077
tp1078
a(I33
Vhttp://www.zhihu.com/people/taylorhuang
p1079
tp1080
a(I31
Vhttp://www.zhihu.com/people/Chisa
p1081
tp1082
a(I28
Vhttp://www.zhihu.com/people/johndoe-51
p1083
tp1084
a(I28
Vhttp://www.zhihu.com/people/zipplee
p1085
tp1086
a(I27
Vhttp://www.zhihu.com/people/da-gou-18
p1087
tp1088
a(I25
Vhttp://www.zhihu.com/people/zhang-wei-70
p1089
tp1090
a(I25
Vhttp://www.zhihu.com/people/chen-jian-feng-41
p1091
tp1092
a(I24
Vhttp://www.zhihu.com/people/leungsky
p1093
tp1094
a(I22
Vhttp://www.zhihu.com/people/yixingnan
p1095
tp1096
a(I20
Vhttp://www.zhihu.com/people/di-yu-jia-8
p1097
tp1098
a(I18
Vhttp://www.zhihu.com/people/li-bin-91-62
p1099
tp1100
a(I17
Vhttp://www.zhihu.com/people/niu-nai-tang-36
p1101
tp1102
a(I17
Vhttp://www.zhihu.com/people/wu-chuan
p1103
tp1104
a(I13
Vhttp://www.zhihu.com/people/han-xiao-73
p1105
tp1106
a(I11
Vhttp://www.zhihu.com/people/cui-zhi-yuan-51
p1107
tp1108
a(I11
Vhttp://www.zhihu.com/people/zhang-san-71-61
p1109
tp1110
a(I11
Vhttp://www.zhihu.com/people/xiaopeng-liu
p1111
tp1112
a(I10
Vhttp://www.zhihu.com/people/chen-xian-ren-66
p1113
tp1114
a(I10
Vhttp://www.zhihu.com/people/li-xu-yi
p1115
tp1116
a(I9
Vhttp://www.zhihu.com/people/Kim_Han
p1117
tp1118
a(I9
Vhttp://www.zhihu.com/people/xu-dong-xudo
p1119
tp1120
a(I8
Vhttp://www.zhihu.com/people/wang-yifan-33-92
p1121
tp1122
a(I8
Vhttp://www.zhihu.com/people/logrithem
p1123
tp1124
a(I7
Vhttp://www.zhihu.com/people/li-tong-38
p1125
tp1126
a(I7
Vhttp://www.zhihu.com/people/ni-lin-bin
p1127
tp1128
a(I6
Vhttp://www.zhihu.com/people/xu-shao-fei
p1129
tp1130
a(I6
Vhttp://www.zhihu.com/people/yang-li-36
p1131
tp1132
a(I6
Vhttp://www.zhihu.com/people/qiu-chen-93
p1133
tp1134
a(I5
Vhttp://www.zhihu.com/people/enzo-hs
p1135
tp1136
a(I5
Vhttp://www.zhihu.com/people/liu-ai-ai-91
p1137
tp1138
a(I5
Vhttp://www.zhihu.com/people/xu-feng-61-51
p1139
tp1140
a(I4
Vhttp://www.zhihu.com/people/xu-yuan-sheng
p1141
tp1142
a(I4
Vhttp://www.zhihu.com/people/chong-ge-85
p1143
tp1144
a(I3
Vhttp://www.zhihu.com/people/mahoupao
p1145
tp1146
a(I3
Vhttp://www.zhihu.com/people/grace-liu-99
p1147
tp1148
a(I3
Vhttp://www.zhihu.com/people/conanowen
p1149
tp1150
a(I2
Vhttp://www.zhihu.com/people/zhong-jia-cong
p1151
tp1152
a(I2
Vhttp://www.zhihu.com/people/chen-xing-yu-54-38
p1153
tp1154
a(I2
Vhttp://www.zhihu.com/people/nigle
p1155
tp1156
a(I1
Vhttp://www.zhihu.com/people/bai-jun-yi-44
p1157
tp1158
a(I1
Vhttp://www.zhihu.com/people/wang-wei-wei-63
p1159
tp1160
a(I1
Vhttp://www.zhihu.com/people/wang-ge-fan-26
p1161
tp1162
a.